target datalayout = "e-m:e-p270:32:32-p271:32:32-p272:64:64-i64:64-i128:128-f80:128-n8:16:32:64-S128"
target triple = "x86_64-pc-linux-gnu"

%struct.MRef = type { i64 }
%struct.GCRef = type { i64 }
%struct.GCproto = type { %struct.GCRef, i8, i8, i8, i8, i32, i32, %struct.GCRef, %struct.MRef, %struct.MRef, i32, i32, i32, i8, i8, i16, %struct.GCRef, i32, i32, %struct.MRef, %struct.MRef, %struct.MRef }
%struct.GChead = type { %struct.GCRef, i8, i8, i8, i8, %struct.GCRef, %struct.GCRef, %struct.GCRef }

; Function Attrs: nounwind uwtable
define internal void @setptmode(ptr noundef %0, ptr noundef %1, i32 noundef %2) #0 {
  %4 = alloca ptr, align 8
  %5 = alloca ptr, align 8
  %6 = alloca i32, align 4
  store ptr %0, ptr %4, align 8, !tbaa !48
  store ptr %1, ptr %5, align 8, !tbaa !66
  store i32 %2, ptr %6, align 4, !tbaa !10
  %7 = load i32, ptr %6, align 4, !tbaa !10
  %8 = and i32 %7, 256
  %9 = icmp ne i32 %8, 0
  br i1 %9, label %10, label %18

10:                                               ; preds = %3
  %11 = load ptr, ptr %5, align 8, !tbaa !66
  %12 = getelementptr inbounds nuw %struct.GCproto, ptr %11, i32 0, i32 14
  %13 = load i8, ptr %12, align 1, !tbaa !68
  %14 = zext i8 %13 to i32
  %15 = and i32 %14, -9
  %16 = trunc i32 %15 to i8
  store i8 %16, ptr %12, align 1, !tbaa !68
  %17 = load ptr, ptr %5, align 8, !tbaa !66
  call void @lj_trace_reenableproto(ptr noundef %17)
  br label %32

18:                                               ; preds = %3
  %19 = load i32, ptr %6, align 4, !tbaa !10
  %20 = and i32 %19, 512
  %21 = icmp ne i32 %20, 0
  br i1 %21, label %29, label %22

22:                                               ; preds = %18
  %23 = load ptr, ptr %5, align 8, !tbaa !66
  %24 = getelementptr inbounds nuw %struct.GCproto, ptr %23, i32 0, i32 14
  %25 = load i8, ptr %24, align 1, !tbaa !68
  %26 = zext i8 %25 to i32
  %27 = or i32 %26, 8
  %28 = trunc i32 %27 to i8
  store i8 %28, ptr %24, align 1, !tbaa !68
  br label %29

29:                                               ; preds = %22, %18
  %30 = load ptr, ptr %4, align 8, !tbaa !48
  %31 = load ptr, ptr %5, align 8, !tbaa !66
  call void @lj_trace_flushproto(ptr noundef %30, ptr noundef %31)
  br label %32

32:                                               ; preds = %29, %10
  ret void
}

; Function Attrs: nounwind uwtable
define internal void @setptmode_all(ptr noundef %0, ptr noundef %1, i32 noundef %2) #0 {
  %4 = alloca ptr, align 8
  %5 = alloca ptr, align 8
  %6 = alloca i32, align 4
  %7 = alloca i64, align 8
  %8 = alloca i32, align 4
  %9 = alloca ptr, align 8
  store ptr %0, ptr %4, align 8, !tbaa !48
  store ptr %1, ptr %5, align 8, !tbaa !66
  store i32 %2, ptr %6, align 4, !tbaa !10
  call void @llvm.lifetime.start.p0(i64 8, ptr %7) #7
  %10 = load ptr, ptr %5, align 8, !tbaa !66
  %11 = getelementptr inbounds nuw %struct.GCproto, ptr %10, i32 0, i32 14
  %12 = load i8, ptr %11, align 1, !tbaa !68
  %13 = zext i8 %12 to i32
  %14 = and i32 %13, 1
  %15 = icmp ne i32 %14, 0
  br i1 %15, label %17, label %16

16:                                               ; preds = %3
  store i32 1, ptr %8, align 4
  br label %54

17:                                               ; preds = %3
  %18 = load ptr, ptr %5, align 8, !tbaa !66
  %19 = getelementptr inbounds nuw %struct.GCproto, ptr %18, i32 0, i32 10
  %20 = load i32, ptr %19, align 8, !tbaa !70
  %21 = zext i32 %20 to i64
  %22 = sub nsw i64 0, %21
  store i64 %22, ptr %7, align 8, !tbaa !71
  br label %23

23:                                               ; preds = %50, %17
  %24 = load i64, ptr %7, align 8, !tbaa !71
  %25 = icmp slt i64 %24, 0
  br i1 %25, label %26, label %53

26:                                               ; preds = %23
  call void @llvm.lifetime.start.p0(i64 8, ptr %9) #7
  %27 = load ptr, ptr %5, align 8, !tbaa !66
  %28 = getelementptr inbounds nuw %struct.GCproto, ptr %27, i32 0, i32 8
  %29 = getelementptr inbounds nuw %struct.MRef, ptr %28, i32 0, i32 0
  %30 = load i64, ptr %29, align 8, !tbaa !72
  %31 = inttoptr i64 %30 to ptr
  %32 = load i64, ptr %7, align 8, !tbaa !71
  %33 = getelementptr inbounds %struct.GCRef, ptr %31, i64 %32
  %34 = getelementptr inbounds nuw %struct.GCRef, ptr %33, i32 0, i32 0
  %35 = load i64, ptr %34, align 8, !tbaa !73
  %36 = inttoptr i64 %35 to ptr
  store ptr %36, ptr %9, align 8, !tbaa !74
  %37 = load ptr, ptr %9, align 8, !tbaa !74
  %38 = getelementptr inbounds nuw %struct.GChead, ptr %37, i32 0, i32 2
  %39 = load i8, ptr %38, align 1, !tbaa !54
  %40 = zext i8 %39 to i32
  %41 = icmp eq i32 %40, 7
  br i1 %41, label %42, label %49

42:                                               ; preds = %26
  %43 = load ptr, ptr %4, align 8, !tbaa !48
  %44 = load ptr, ptr %9, align 8, !tbaa !74
  %45 = load i32, ptr %6, align 4, !tbaa !10
  call void @setptmode(ptr noundef %43, ptr noundef %44, i32 noundef %45)
  %46 = load ptr, ptr %4, align 8, !tbaa !48
  %47 = load ptr, ptr %9, align 8, !tbaa !74
  %48 = load i32, ptr %6, align 4, !tbaa !10
  call void @setptmode_all(ptr noundef %46, ptr noundef %47, i32 noundef %48)
  br label %49

49:                                               ; preds = %42, %26
  call void @llvm.lifetime.end.p0(i64 8, ptr %9) #7
  br label %50

50:                                               ; preds = %49
  %51 = load i64, ptr %7, align 8, !tbaa !71
  %52 = add nsw i64 %51, 1
  store i64 %52, ptr %7, align 8, !tbaa !71
  br label %23, !llvm.loop !76

53:                                               ; preds = %23
  store i32 0, ptr %8, align 4
  br label %54

54:                                               ; preds = %53, %16
  call void @llvm.lifetime.end.p0(i64 8, ptr %7) #7
  %55 = load i32, ptr %8, align 4
  switch i32 %55, label %57 [
    i32 0, label %56
    i32 1, label %56
  ]

56:                                               ; preds = %54, %54
  ret void

57:                                               ; preds = %54
  unreachable
}