; Function Attrs: nounwind uwtable
define internal fastcc void @setptmode_all(ptr noundef %0, ptr noundef readonly captures(none) %1, i32 noundef %2) unnamed_addr #4 {
  %4 = getelementptr inbounds nuw i8, ptr %1, i64 61
  %5 = load i8, ptr %4, align 1, !tbaa !58
  %6 = and i8 %5, 1
  %.not = icmp eq i8 %6, 0
  br i1 %.not, label %.loopexit, label %7

7:                                                ; preds = %3
  %8 = getelementptr inbounds nuw i8, ptr %1, i64 48
  %9 = load i32, ptr %8, align 8, !tbaa !62
  %10 = zext i32 %9 to i64
  %11 = sub nsw i64 0, %10
  %.not13 = icmp eq i32 %9, 0
  br i1 %.not13, label %.loopexit, label %.lr.ph

.lr.ph:                                           ; preds = %7
  %12 = getelementptr inbounds nuw i8, ptr %1, i64 32
  %13 = and i32 %2, 256
  %.not.i = icmp eq i32 %13, 0
  br i1 %.not.i, label %.lr.ph.split.us, label %.lr.ph.split

.lr.ph.split.us:                                  ; preds = %.lr.ph
  %14 = and i32 %2, 512
  %.not6.i = icmp eq i32 %14, 0
  br i1 %.not6.i, label %.lr.ph.split.us.split.us, label %.lr.ph.split.us.split

.lr.ph.split.us.split.us:                         ; preds = %.lr.ph.split.us, %26
  %.012.us.us = phi i64 [ %27, %26 ], [ %11, %.lr.ph.split.us ]
  %15 = load i64, ptr %12, align 8, !tbaa !63
  %16 = inttoptr i64 %15 to ptr
  %17 = getelementptr inbounds %struct.GCRef, ptr %16, i64 %.012.us.us
  %18 = load i64, ptr %17, align 8, !tbaa !64
  %19 = inttoptr i64 %18 to ptr
  %20 = getelementptr inbounds nuw i8, ptr %19, i64 9
  %21 = load i8, ptr %20, align 1, !tbaa !56
  %22 = icmp eq i8 %21, 7
  br i1 %22, label %setptmode.exit.us.us, label %26

setptmode.exit.us.us:                             ; preds = %.lr.ph.split.us.split.us
  %23 = getelementptr inbounds nuw i8, ptr %19, i64 61
  %24 = load i8, ptr %23, align 1, !tbaa !58
  %25 = or i8 %24, 8
  store i8 %25, ptr %23, align 1, !tbaa !58
  tail call void @lj_trace_flushproto(ptr noundef %0, ptr noundef nonnull %19) #12
  tail call fastcc void @setptmode_all(ptr noundef %0, ptr noundef nonnull %19, i32 noundef %2)
  br label %26

26:                                               ; preds = %setptmode.exit.us.us, %.lr.ph.split.us.split.us
  %27 = add nsw i64 %.012.us.us, 1
  %exitcond17.not = icmp eq i64 %27, 0
  br i1 %exitcond17.not, label %.loopexit, label %.lr.ph.split.us.split.us, !llvm.loop !65

.lr.ph.split.us.split:                            ; preds = %.lr.ph.split.us, %36
  %.012.us = phi i64 [ %37, %36 ], [ %11, %.lr.ph.split.us ]
  %28 = load i64, ptr %12, align 8, !tbaa !63
  %29 = inttoptr i64 %28 to ptr
  %30 = getelementptr inbounds %struct.GCRef, ptr %29, i64 %.012.us
  %31 = load i64, ptr %30, align 8, !tbaa !64
  %32 = inttoptr i64 %31 to ptr
  %33 = getelementptr inbounds nuw i8, ptr %32, i64 9
  %34 = load i8, ptr %33, align 1, !tbaa !56
  %35 = icmp eq i8 %34, 7
  br i1 %35, label %setptmode.exit.us, label %36

setptmode.exit.us:                                ; preds = %.lr.ph.split.us.split
  tail call void @lj_trace_flushproto(ptr noundef %0, ptr noundef nonnull %32) #12
  tail call fastcc void @setptmode_all(ptr noundef %0, ptr noundef nonnull %32, i32 noundef %2)
  br label %36

36:                                               ; preds = %setptmode.exit.us, %.lr.ph.split.us.split
  %37 = add nsw i64 %.012.us, 1
  %exitcond16.not = icmp eq i64 %37, 0
  br i1 %exitcond16.not, label %.loopexit, label %.lr.ph.split.us.split, !llvm.loop !65

.lr.ph.split:                                     ; preds = %.lr.ph, %49
  %.012 = phi i64 [ %50, %49 ], [ %11, %.lr.ph ]
  %38 = load i64, ptr %12, align 8, !tbaa !63
  %39 = inttoptr i64 %38 to ptr
  %40 = getelementptr inbounds %struct.GCRef, ptr %39, i64 %.012
  %41 = load i64, ptr %40, align 8, !tbaa !64
  %42 = inttoptr i64 %41 to ptr
  %43 = getelementptr inbounds nuw i8, ptr %42, i64 9
  %44 = load i8, ptr %43, align 1, !tbaa !56
  %45 = icmp eq i8 %44, 7
  br i1 %45, label %setptmode.exit, label %49

setptmode.exit:                                   ; preds = %.lr.ph.split
  %46 = getelementptr inbounds nuw i8, ptr %42, i64 61
  %47 = load i8, ptr %46, align 1, !tbaa !58
  %48 = and i8 %47, -9
  store i8 %48, ptr %46, align 1, !tbaa !58
  tail call void @lj_trace_reenableproto(ptr noundef nonnull %42) #12
  tail call fastcc void @setptmode_all(ptr noundef %0, ptr noundef nonnull %42, i32 noundef %2)
  br label %49

49:                                               ; preds = %setptmode.exit, %.lr.ph.split
  %50 = add nsw i64 %.012, 1
  %exitcond.not = icmp eq i64 %50, 0
  br i1 %exitcond.not, label %.loopexit, label %.lr.ph.split, !llvm.loop !65

.loopexit:                                        ; preds = %49, %36, %26, %7, %3
  ret void
}